; ModuleID = '24/139.c'
source_filename = "24/139.c"
target datalayout = "e-m:e-p270:32:32-p271:32:32-p272:64:64-i64:64-f80:128-n8:16:32:64-S128"
target triple = "x86_64-pc-linux-gnu"

@.str = private unnamed_addr constant [7 x i8] c"%s\0A%s\0A\00", align 1

; Function Attrs: noinline nounwind uwtable
define dso_local void @main() #0 {
  %1 = alloca i32, align 4
  %2 = alloca i32, align 4
  %3 = alloca i32, align 4
  %4 = alloca i32, align 4
  %5 = alloca i32, align 4
  %6 = alloca i32, align 4
  %7 = alloca i32, align 4
  %8 = alloca [100 x [50 x i8]], align 16
  %9 = alloca [500 x i8], align 16
  %10 = alloca i8, align 1
  %11 = getelementptr inbounds [500 x i8], [500 x i8]* %9, i64 0, i64 0
  %12 = call i32 (i8*, ...) bitcast (i32 (...)* @gets to i32 (i8*, ...)*)(i8* %11)
  %13 = getelementptr inbounds [500 x i8], [500 x i8]* %9, i64 0, i64 0
  %14 = call i64 @strlen(i8* %13) #3
  %15 = trunc i64 %14 to i32
  store i32 %15, i32* %7, align 4
  store i32 0, i32* %1, align 4
  store i32 0, i32* %3, align 4
  store i32 0, i32* %2, align 4
  store i32 0, i32* %1, align 4
  br label %16

16:                                               ; preds = %51, %0
  %17 = load i32, i32* %1, align 4
  %18 = load i32, i32* %7, align 4
  %19 = icmp sle i32 %17, %18
  br i1 %19, label %20, label %54

20:                                               ; preds = %16
  %21 = load i32, i32* %1, align 4
  %22 = sext i32 %21 to i64
  %23 = getelementptr inbounds [500 x i8], [500 x i8]* %9, i64 0, i64 %22
  %24 = load i8, i8* %23, align 1
  %25 = sext i8 %24 to i32
  %26 = icmp ne i32 %25, 32
  br i1 %26, label %27, label %40

27:                                               ; preds = %20
  %28 = load i32, i32* %1, align 4
  %29 = sext i32 %28 to i64
  %30 = getelementptr inbounds [500 x i8], [500 x i8]* %9, i64 0, i64 %29
  %31 = load i8, i8* %30, align 1
  %32 = load i32, i32* %2, align 4
  %33 = sext i32 %32 to i64
  %34 = getelementptr inbounds [100 x [50 x i8]], [100 x [50 x i8]]* %8, i64 0, i64 %33
  %35 = load i32, i32* %3, align 4
  %36 = sext i32 %35 to i64
  %37 = getelementptr inbounds [50 x i8], [50 x i8]* %34, i64 0, i64 %36
  store i8 %31, i8* %37, align 1
  %38 = load i32, i32* %3, align 4
  %39 = add nsw i32 %38, 1
  store i32 %39, i32* %3, align 4
  br label %40

40:                                               ; preds = %27, %20
  %41 = load i32, i32* %1, align 4
  %42 = sext i32 %41 to i64
  %43 = getelementptr inbounds [500 x i8], [500 x i8]* %9, i64 0, i64 %42
  %44 = load i8, i8* %43, align 1
  %45 = sext i8 %44 to i32
  %46 = icmp eq i32 %45, 32
  br i1 %46, label %47, label %50

47:                                               ; preds = %40
  %48 = load i32, i32* %2, align 4
  %49 = add nsw i32 %48, 1
  store i32 %49, i32* %2, align 4
  store i32 0, i32* %3, align 4
  br label %50

50:                                               ; preds = %47, %40
  br label %51

51:                                               ; preds = %50
  %52 = load i32, i32* %1, align 4
  %53 = add nsw i32 %52, 1
  store i32 %53, i32* %1, align 4
  br label %16

54:                                               ; preds = %16
  store i32 0, i32* %5, align 4
  store i32 0, i32* %6, align 4
  store i32 0, i32* %4, align 4
  br label %55

55:                                               ; preds = %88, %54
  %56 = load i32, i32* %4, align 4
  %57 = load i32, i32* %2, align 4
  %58 = icmp sle i32 %56, %57
  br i1 %58, label %59, label %91

59:                                               ; preds = %55
  %60 = load i32, i32* %4, align 4
  %61 = sext i32 %60 to i64
  %62 = getelementptr inbounds [100 x [50 x i8]], [100 x [50 x i8]]* %8, i64 0, i64 %61
  %63 = getelementptr inbounds [50 x i8], [50 x i8]* %62, i64 0, i64 0
  %64 = call i64 @strlen(i8* %63) #3
  %65 = load i32, i32* %5, align 4
  %66 = sext i32 %65 to i64
  %67 = getelementptr inbounds [100 x [50 x i8]], [100 x [50 x i8]]* %8, i64 0, i64 %66
  %68 = getelementptr inbounds [50 x i8], [50 x i8]* %67, i64 0, i64 0
  %69 = call i64 @strlen(i8* %68) #3
  %70 = icmp ugt i64 %64, %69
  br i1 %70, label %71, label %73

71:                                               ; preds = %59
  %72 = load i32, i32* %4, align 4
  store i32 %72, i32* %5, align 4
  br label %73

73:                                               ; preds = %71, %59
  %74 = load i32, i32* %4, align 4
  %75 = sext i32 %74 to i64
  %76 = getelementptr inbounds [100 x [50 x i8]], [100 x [50 x i8]]* %8, i64 0, i64 %75
  %77 = getelementptr inbounds [50 x i8], [50 x i8]* %76, i64 0, i64 0
  %78 = call i64 @strlen(i8* %77) #3
  %79 = load i32, i32* %6, align 4
  %80 = sext i32 %79 to i64
  %81 = getelementptr inbounds [100 x [50 x i8]], [100 x [50 x i8]]* %8, i64 0, i64 %80
  %82 = getelementptr inbounds [50 x i8], [50 x i8]* %81, i64 0, i64 0
  %83 = call i64 @strlen(i8* %82) #3
  %84 = icmp ult i64 %78, %83
  br i1 %84, label %85, label %87

85:                                               ; preds = %73
  %86 = load i32, i32* %4, align 4
  store i32 %86, i32* %6, align 4
  br label %87

87:                                               ; preds = %85, %73
  br label %88

88:                                               ; preds = %87
  %89 = load i32, i32* %4, align 4
  %90 = add nsw i32 %89, 1
  store i32 %90, i32* %4, align 4
  br label %55

91:                                               ; preds = %55
  %92 = load i32, i32* %5, align 4
  %93 = sext i32 %92 to i64
  %94 = getelementptr inbounds [100 x [50 x i8]], [100 x [50 x i8]]* %8, i64 0, i64 %93
  %95 = getelementptr inbounds [50 x i8], [50 x i8]* %94, i64 0, i64 0
  %96 = load i32, i32* %6, align 4
  %97 = sext i32 %96 to i64
  %98 = getelementptr inbounds [100 x [50 x i8]], [100 x [50 x i8]]* %8, i64 0, i64 %97
  %99 = getelementptr inbounds [50 x i8], [50 x i8]* %98, i64 0, i64 0
  %100 = call i32 (i8*, ...) @printf(i8* getelementptr inbounds ([7 x i8], [7 x i8]* @.str, i64 0, i64 0), i8* %95, i8* %99)
  ret void
}

declare dso_local i32 @gets(...) #1

; Function Attrs: nounwind readonly
declare dso_local i64 @strlen(i8*) #2

declare dso_local i32 @printf(i8*, ...) #1


!llvm.module.flags = !{!0}
!llvm.ident = !{!1}

!0 = !{i32 1, !"wchar_size", i32 4}
!1 = !{!"clang version 10.0.0-4ubuntu1 "}
